target datalayout = "e-m:e-p270:32:32-p271:32:32-p272:64:64-i64:64-i128:128-f80:128-n8:16:32:64-S128"
target triple = "x86_64-pc-linux-gnu"

%"class.std::shared_ptr" = type { %"class.std::__shared_ptr" }
%"class.std::__shared_ptr" = type { ptr, %"class.std::__shared_count" }
%"class.std::__shared_count" = type { ptr }
%"class.gmx::internal::SelectionData" = type <{ %"class.std::__cxx11::basic_string", %"class.std::__cxx11::basic_string", %struct.gmx_ana_pos_t, %"class.std::vector", %"class.std::vector", %"class.gmx::FlagsTemplate", ptr, i32, float, float, i8, i8, [2 x i8] }>
%"class.std::__cxx11::basic_string" = type { %"struct.std::__cxx11::basic_string<char>::_Alloc_hider", i64, %union.anon }
%"struct.std::__cxx11::basic_string<char>::_Alloc_hider" = type { ptr }
%union.anon = type { i64, [8 x i8] }
%struct.gmx_ana_pos_t = type <{ ptr, ptr, ptr, %struct.gmx_ana_indexmap_t, i32, [4 x i8] }>
%struct.gmx_ana_indexmap_t = type { i32, ptr, ptr, %struct.t_blocka, ptr, %struct.t_blocka, i8 }
%struct.t_blocka = type { i32, ptr, i32, ptr, i32, i32 }
%"class.std::vector" = type { %"struct.std::_Vector_base" }
%"struct.std::_Vector_base" = type { %"struct.std::_Vector_base<float, std::allocator<float>>::_Vector_impl" }
%"struct.std::_Vector_base<float, std::allocator<float>>::_Vector_impl" = type { %"struct.std::_Vector_base<float, std::allocator<float>>::_Vector_impl_data" }
%"struct.std::_Vector_base<float, std::allocator<float>>::_Vector_impl_data" = type { ptr, ptr, ptr }
%"class.gmx::FlagsTemplate" = type { i64 }
%"class.gmx::SelectionTreeElement" = type { i32, %struct.gmx_ana_selvalue_t, ptr, i32, %union.anon.4, ptr, ptr, %"class.std::shared_ptr", %"class.std::shared_ptr", %"class.std::__cxx11::basic_string", %"struct.gmx::SelectionLocation" }
%struct.gmx_ana_selvalue_t = type { i32, i32, %union.anon.3, i32 }
%union.anon.3 = type { ptr }
%union.anon.4 = type { %struct.anon }
%struct.anon = type { ptr, ptr, ptr, ptr }
%"struct.gmx::SelectionLocation" = type { i32, i32 }

; Function Attrs: mustprogress nounwind uwtable
define linkonce_odr noundef zeroext i1 @_ZNK3gmx13FlagsTemplateINS_13SelectionFlagEE4testES1_(ptr noundef nonnull align 8 dereferenceable(8) %0, i64 noundef %1) #1 comdat align 2 {
  %3 = alloca ptr, align 8
  %4 = alloca i64, align 8
  store ptr %0, ptr %3, align 8
  store i64 %1, ptr %4, align 8
  %5 = load ptr, ptr %3, align 8
  %6 = getelementptr inbounds %"class.gmx::FlagsTemplate", ptr %5, i32 0, i32 0
  %7 = load i64, ptr %6, align 8
  %8 = load i64, ptr %4, align 8
  %9 = and i64 %7, %8
  %10 = icmp ne i64 %9, 0
  ret i1 %10
}

; Function Attrs: mustprogress uwtable
define void @_ZN3gmx8internal13SelectionData23refreshMassesAndChargesEPK10gmx_mtop_t(ptr noundef nonnull align 8 dereferenceable(294) %0, ptr noundef %1) #0 align 2 {
  %3 = alloca ptr, align 8
  %4 = alloca ptr, align 8
  store ptr %0, ptr %3, align 8
  store ptr %1, ptr %4, align 8
  %5 = load ptr, ptr %3, align 8
  %6 = load ptr, ptr %4, align 8
  %7 = icmp ne ptr %6, null
  br i1 %7, label %8, label %17

8:                                                ; preds = %2
  %9 = call noundef zeroext i1 @_ZNK3gmx8internal13SelectionData9isDynamicEv(ptr noundef nonnull align 8 dereferenceable(294) %5)
  br i1 %9, label %10, label %17

10:                                               ; preds = %8
  %11 = call noundef zeroext i1 @_ZNK3gmx8internal13SelectionData7hasFlagENS_13SelectionFlagE(ptr noundef nonnull align 8 dereferenceable(294) %5, i64 noundef 8)
  br i1 %11, label %17, label %12

12:                                               ; preds = %10
  %13 = load ptr, ptr %4, align 8
  %14 = getelementptr inbounds %"class.gmx::internal::SelectionData", ptr %5, i32 0, i32 2
  %15 = getelementptr inbounds %"class.gmx::internal::SelectionData", ptr %5, i32 0, i32 3
  %16 = getelementptr inbounds %"class.gmx::internal::SelectionData", ptr %5, i32 0, i32 4
  call void @_ZN3gmx8internal12_GLOBAL__N_123computeMassesAndChargesEPK10gmx_mtop_tRK13gmx_ana_pos_tPSt6vectorIfSaIfEESB_(ptr noundef %13, ptr noundef nonnull align 8 dereferenceable(148) %14, ptr noundef %15, ptr noundef %16)
  br label %17

17:                                               ; preds = %12, %10, %8, %2
  ret void
}

; Function Attrs: mustprogress uwtable
define linkonce_odr noundef zeroext i1 @_ZNK3gmx8internal13SelectionData7hasFlagENS_13SelectionFlagE(ptr noundef nonnull align 8 dereferenceable(294) %0, i64 noundef %1) #0 comdat align 2 {
  %3 = alloca ptr, align 8
  %4 = alloca i64, align 8
  store ptr %0, ptr %3, align 8
  store i64 %1, ptr %4, align 8
  %5 = load ptr, ptr %3, align 8
  %6 = getelementptr inbounds %"class.gmx::internal::SelectionData", ptr %5, i32 0, i32 5
  %7 = load i64, ptr %4, align 8
  %8 = call noundef zeroext i1 @_ZNK3gmx13FlagsTemplateINS_13SelectionFlagEE4testES1_(ptr noundef nonnull align 8 dereferenceable(8) %6, i64 noundef %7)
  ret i1 %8
}

; Function Attrs: mustprogress nounwind uwtable
define linkonce_odr noundef nonnull align 8 dereferenceable(168) ptr @_ZN3gmx8internal13SelectionData11rootElementEv(ptr noundef nonnull align 8 dereferenceable(294) %0) #1 comdat align 2 {
  %2 = alloca ptr, align 8
  store ptr %0, ptr %2, align 8
  %3 = load ptr, ptr %2, align 8
  %4 = getelementptr inbounds %"class.gmx::internal::SelectionData", ptr %3, i32 0, i32 6
  %5 = load ptr, ptr %4, align 8
  ret ptr %5
}

; Function Attrs: mustprogress nounwind uwtable
define linkonce_odr noundef zeroext i1 @_ZNK3gmx8internal13SelectionData9isDynamicEv(ptr noundef nonnull align 8 dereferenceable(294) %0) #1 comdat align 2 {
  %2 = alloca ptr, align 8
  store ptr %0, ptr %2, align 8
  %3 = load ptr, ptr %2, align 8
  %4 = getelementptr inbounds %"class.gmx::internal::SelectionData", ptr %3, i32 0, i32 10
  %5 = load i8, ptr %4, align 4
  %6 = trunc i8 %5 to i1
  ret i1 %6
}

; Function Attrs: mustprogress uwtable
define void @_ZN3gmx8internal13SelectionData24restoreOriginalPositionsEPK10gmx_mtop_t(ptr noundef nonnull align 8 dereferenceable(294) %0, ptr noundef %1) #0 align 2 {
  %3 = alloca ptr, align 8
  %4 = alloca ptr, align 8
  %5 = alloca ptr, align 8
  store ptr %0, ptr %3, align 8
  store ptr %1, ptr %4, align 8
  %6 = load ptr, ptr %3, align 8
  %7 = call noundef zeroext i1 @_ZNK3gmx8internal13SelectionData9isDynamicEv(ptr noundef nonnull align 8 dereferenceable(294) %6)
  br i1 %7, label %8, label %18

8:                                                ; preds = %2
  %9 = getelementptr inbounds %"class.gmx::internal::SelectionData", ptr %6, i32 0, i32 2
  store ptr %9, ptr %5, align 8
  %10 = load ptr, ptr %5, align 8
  %11 = getelementptr inbounds %struct.gmx_ana_pos_t, ptr %10, i32 0, i32 3
  %12 = call noundef nonnull align 8 dereferenceable(168) ptr @_ZN3gmx8internal13SelectionData11rootElementEv(ptr noundef nonnull align 8 dereferenceable(294) %6)
  %13 = getelementptr inbounds %"class.gmx::SelectionTreeElement", ptr %12, i32 0, i32 1
  %14 = getelementptr inbounds %struct.gmx_ana_selvalue_t, ptr %13, i32 0, i32 2
  %15 = load ptr, ptr %14, align 8
  %16 = call noundef zeroext i1 @_ZNK3gmx8internal13SelectionData7hasFlagENS_13SelectionFlagE(ptr noundef nonnull align 8 dereferenceable(294) %6, i64 noundef 8)
  call void @_Z23gmx_ana_indexmap_updateP18gmx_ana_indexmap_tP15gmx_ana_index_tb(ptr noundef %11, ptr noundef %15, i1 noundef zeroext %16)
  %17 = load ptr, ptr %4, align 8
  call void @_ZN3gmx8internal13SelectionData23refreshMassesAndChargesEPK10gmx_mtop_t(ptr noundef nonnull align 8 dereferenceable(294) %6, ptr noundef %17)
  br label %18

18:                                               ; preds = %8, %2
  ret void
}