; Function Attrs: mustprogress uwtable
define void @_ZN3gmx8internal13SelectionData24restoreOriginalPositionsEPK10gmx_mtop_t(ptr noundef nonnull align 8 dereferenceable(294) %0, ptr noundef readonly %1) local_unnamed_addr #0 align 2 {
  %3 = getelementptr inbounds i8, ptr %0, i64 292
  %4 = load i8, ptr %3, align 4
  %5 = trunc i8 %4 to i1
  br i1 %5, label %6, label %_ZN3gmx8internal13SelectionData23refreshMassesAndChargesEPK10gmx_mtop_t.exit

6:                                                ; preds = %2
  %7 = getelementptr inbounds i8, ptr %0, i64 88
  %8 = getelementptr inbounds i8, ptr %0, i64 272
  %9 = load ptr, ptr %8, align 8
  %10 = getelementptr inbounds i8, ptr %9, i64 16
  %11 = load ptr, ptr %10, align 8
  %12 = getelementptr inbounds i8, ptr %0, i64 264
  %13 = load i64, ptr %12, align 8
  %14 = and i64 %13, 8
  %15 = icmp ne i64 %14, 0
  tail call void @_Z23gmx_ana_indexmap_updateP18gmx_ana_indexmap_tP15gmx_ana_index_tb(ptr noundef nonnull %7, ptr noundef %11, i1 noundef zeroext %15)
  %.not.i = icmp eq ptr %1, null
  br i1 %.not.i, label %_ZN3gmx8internal13SelectionData23refreshMassesAndChargesEPK10gmx_mtop_t.exit, label %16

16:                                               ; preds = %6
  %17 = load i8, ptr %3, align 4
  %18 = trunc i8 %17 to i1
  br i1 %18, label %19, label %_ZN3gmx8internal13SelectionData23refreshMassesAndChargesEPK10gmx_mtop_t.exit

19:                                               ; preds = %16
  %20 = load i64, ptr %12, align 8
  %21 = and i64 %20, 8
  %.not3.i = icmp eq i64 %21, 0
  br i1 %.not3.i, label %22, label %_ZN3gmx8internal13SelectionData23refreshMassesAndChargesEPK10gmx_mtop_t.exit

22:                                               ; preds = %19
  %23 = getelementptr inbounds i8, ptr %0, i64 64
  %24 = getelementptr inbounds i8, ptr %0, i64 216
  %25 = getelementptr inbounds i8, ptr %0, i64 240
  tail call fastcc void @_ZN3gmx8internal12_GLOBAL__N_123computeMassesAndChargesEPK10gmx_mtop_tRK13gmx_ana_pos_tPSt6vectorIfSaIfEESB_(ptr noundef nonnull %1, ptr noundef nonnull align 8 dereferenceable(148) %23, ptr noundef nonnull %24, ptr noundef nonnull %25)
  br label %_ZN3gmx8internal13SelectionData23refreshMassesAndChargesEPK10gmx_mtop_t.exit

_ZN3gmx8internal13SelectionData23refreshMassesAndChargesEPK10gmx_mtop_t.exit: ; preds = %22, %19, %16, %6, %2
  ret void
}